; ModuleID = 'bench/linux/original/infutil.ll'
source_filename = "bench/linux/original/infutil.ll"
target datalayout = "e-m:e-p270:32:32-p271:32:32-p272:64:64-i64:64-i128:128-f80:128-n8:16:32:64-S128"
target triple = "x86_64-unknown-linux-gnu"

@kmalloc_caches = external dso_local local_unnamed_addr global [3 x [14 x ptr]], align 16

; Function Attrs: fn_ret_thunk_extern nounwind null_pointer_is_valid
define dso_local i32 @zlib_inflate_blob(ptr noundef %0, i32 noundef %1, ptr noundef %2, i32 noundef %3) local_unnamed_addr #0 align 16 {
  %5 = load ptr, ptr getelementptr inbounds ([3 x [14 x ptr]], ptr @kmalloc_caches, i64 0, i64 0, i64 1), align 8
  %6 = tail call noalias align 8 dereferenceable_or_null(96) ptr @kmalloc_trace(ptr noundef %5, i32 noundef 3264, i64 noundef 96) #4
  %7 = icmp eq ptr %6, null
  br i1 %7, label %37, label %8

8:                                                ; preds = %4
  %9 = tail call i32 @zlib_inflate_workspacesize() #5
  %10 = sext i32 %9 to i64
  %11 = tail call noalias align 8 ptr @__kmalloc(i64 noundef %10, i32 noundef 3264) #6
  %12 = getelementptr inbounds i8, ptr %6, i64 64
  store ptr %11, ptr %12, align 8
  %13 = icmp eq ptr %11, null
  br i1 %13, label %35, label %14

14:                                               ; preds = %8
  store ptr %2, ptr %6, align 8
  %15 = zext i32 %3 to i64
  %16 = getelementptr inbounds i8, ptr %6, i64 8
  store i64 %15, ptr %16, align 8
  %17 = getelementptr inbounds i8, ptr %6, i64 24
  store ptr %0, ptr %17, align 8
  %18 = zext i32 %1 to i64
  %19 = getelementptr inbounds i8, ptr %6, i64 32
  store i64 %18, ptr %19, align 8
  %20 = tail call i32 @zlib_inflateInit2(ptr noundef nonnull %6, i32 noundef -15) #5
  %21 = icmp eq i32 %20, 0
  br i1 %21, label %22, label %32

22:                                               ; preds = %14
  %23 = tail call i32 @zlib_inflate(ptr noundef nonnull %6, i32 noundef 5) #5
  %24 = icmp eq i32 %23, 1
  br i1 %24, label %25, label %29

25:                                               ; preds = %22
  %26 = load i64, ptr %19, align 8
  %27 = trunc i64 %26 to i32
  %28 = sub i32 %1, %27
  br label %29

29:                                               ; preds = %25, %22
  %30 = phi i32 [ %28, %25 ], [ -22, %22 ]
  %31 = tail call i32 @zlib_inflateEnd(ptr noundef nonnull %6) #5
  br label %32

32:                                               ; preds = %29, %14
  %33 = phi i32 [ %30, %29 ], [ -22, %14 ]
  %34 = load ptr, ptr %12, align 8
  tail call void @kfree(ptr noundef %34) #5
  br label %35

35:                                               ; preds = %32, %8
  %36 = phi i32 [ -12, %8 ], [ %33, %32 ]
  tail call void @kfree(ptr noundef nonnull %6) #5
  br label %37

37:                                               ; preds = %35, %4
  %38 = phi i32 [ -12, %4 ], [ %36, %35 ]
  ret i32 %38
}

; Function Attrs: null_pointer_is_valid
declare dso_local i32 @zlib_inflate_workspacesize() local_unnamed_addr #1

; Function Attrs: null_pointer_is_valid
declare dso_local i32 @zlib_inflateInit2(ptr noundef, i32 noundef) local_unnamed_addr #1

; Function Attrs: null_pointer_is_valid
declare dso_local i32 @zlib_inflate(ptr noundef, i32 noundef) local_unnamed_addr #1

; Function Attrs: null_pointer_is_valid
declare dso_local i32 @zlib_inflateEnd(ptr noundef) local_unnamed_addr #1

; Function Attrs: null_pointer_is_valid
declare dso_local void @kfree(ptr noundef) local_unnamed_addr #1

; Function Attrs: null_pointer_is_valid allocsize(2)
declare dso_local noalias ptr @kmalloc_trace(ptr noundef, i32 noundef, i64 noundef) local_unnamed_addr #2

; Function Attrs: null_pointer_is_valid allocsize(0)
declare dso_local noalias ptr @__kmalloc(i64 noundef, i32 noundef) local_unnamed_addr #3


!llvm.module.flags = !{!0, !1, !2, !3, !4}

!0 = !{i32 1, !"wchar_size", i32 2}
!1 = !{i32 8, !"cf-protection-branch", i32 1}
!2 = !{i32 4, !"function_return_thunk_extern", i32 1}
!3 = !{i32 4, !"indirect_branch_cs_prefix", i32 1}
!4 = !{i32 4, !"SkipRaxSetup", i32 1}
